; Function Attrs: mustprogress nofree norecurse nosync nounwind willreturn memory(read, argmem: readwrite, inaccessiblemem: none) uwtable
define void @_ZNK12b2ChainShape11ComputeAABBEP6b2AABBRK11b2Transformi(ptr nocapture noundef nonnull readonly align 8 dereferenceable(44) %this, ptr nocapture noundef writeonly %aabb, ptr nocapture noundef nonnull readonly align 4 dereferenceable(16) %xf, i32 noundef %childIndex) unnamed_addr #9 align 2 {
entry:
  %add = add nsw i32 %childIndex, 1
  %m_count = getelementptr inbounds i8, ptr %this, i64 24
  %0 = load i32, ptr %m_count, align 8
  %cmp = icmp eq i32 %add, %0
  %spec.store.select = select i1 %cmp, i32 0, i32 %add
  %m_vertices = getelementptr inbounds i8, ptr %this, i64 16
  %1 = load ptr, ptr %m_vertices, align 8
  %idxprom = sext i32 %childIndex to i64
  %arrayidx = getelementptr inbounds %struct.b2Vec2, ptr %1, i64 %idxprom
  %q.i = getelementptr inbounds i8, ptr %xf, i64 8
  %2 = load float, ptr %arrayidx, align 4
  %y.i = getelementptr inbounds i8, ptr %arrayidx, i64 4
  %3 = load float, ptr %y.i, align 4
  %idxprom3 = sext i32 %spec.store.select to i64
  %arrayidx4 = getelementptr inbounds %struct.b2Vec2, ptr %1, i64 %idxprom3
  %4 = load float, ptr %arrayidx4, align 4
  %y.i7 = getelementptr inbounds i8, ptr %arrayidx4, i64 4
  %5 = load float, ptr %y.i7, align 4
  %m_radius = getelementptr inbounds i8, ptr %this, i64 12
  %6 = load <4 x float>, ptr %m_radius, align 4
  %7 = load <2 x float>, ptr %q.i, align 4
  %8 = shufflevector <2 x float> %7, <2 x float> poison, <2 x i32> <i32 1, i32 0>
  %9 = extractelement <2 x float> %7, i64 0
  %10 = fneg float %9
  %11 = insertelement <2 x float> poison, float %3, i64 0
  %12 = shufflevector <2 x float> %11, <2 x float> poison, <2 x i32> zeroinitializer
  %13 = insertelement <2 x float> %7, float %10, i64 0
  %14 = fmul <2 x float> %12, %13
  %15 = insertelement <2 x float> poison, float %2, i64 0
  %16 = shufflevector <2 x float> %15, <2 x float> poison, <2 x i32> zeroinitializer
  %17 = tail call <2 x float> @llvm.fmuladd.v2f32(<2 x float> %8, <2 x float> %16, <2 x float> %14)
  %18 = load <2 x float>, ptr %xf, align 4
  %19 = fadd <2 x float> %18, %17
  %20 = insertelement <2 x float> poison, float %5, i64 0
  %21 = shufflevector <2 x float> %20, <2 x float> poison, <2 x i32> zeroinitializer
  %22 = fmul <2 x float> %21, %13
  %23 = insertelement <2 x float> poison, float %4, i64 0
  %24 = shufflevector <2 x float> %23, <2 x float> poison, <2 x i32> zeroinitializer
  %25 = tail call <2 x float> @llvm.fmuladd.v2f32(<2 x float> %8, <2 x float> %24, <2 x float> %22)
  %26 = fadd <2 x float> %18, %25
  %27 = fcmp olt <2 x float> %19, %26
  %28 = select <2 x i1> %27, <2 x float> %19, <2 x float> %26
  %29 = shufflevector <4 x float> %6, <4 x float> poison, <2 x i32> zeroinitializer
  %30 = fsub <2 x float> %28, %29
  store <2 x float> %30, ptr %aabb, align 4
  %31 = fcmp ogt <2 x float> %19, %26
  %32 = select <2 x i1> %31, <2 x float> %19, <2 x float> %26
  %33 = fadd <2 x float> %29, %32
  %upperBound = getelementptr inbounds i8, ptr %aabb, i64 8
  store <2 x float> %33, ptr %upperBound, align 4
  ret void
}